; Function Attrs: mustprogress nounwind uwtable
define hidden void @_ZN5ceres8internal20RefinedDenseCholeskyD0Ev(ptr noundef nonnull align 8 dereferenceable(40) %0) unnamed_addr #9 align 2 personality ptr @__gxx_personality_v0 {
  %2 = getelementptr inbounds i8, ptr %0, i64 16
  %3 = load ptr, ptr %2, align 8
  %.not.i.i = icmp eq ptr %3, null
  br i1 %.not.i.i, label %_ZNSt10unique_ptrIN5ceres8internal21DenseIterativeRefinerESt14default_deleteIS2_EED2Ev.exit.i, label %_ZNKSt14default_deleteIN5ceres8internal21DenseIterativeRefinerEEclEPS2_.exit.i.i

_ZNKSt14default_deleteIN5ceres8internal21DenseIterativeRefinerEEclEPS2_.exit.i.i: ; preds = %1
  %4 = load ptr, ptr %3, align 8
  %5 = getelementptr inbounds i8, ptr %4, i64 8
  %6 = load ptr, ptr %5, align 8
  tail call void %6(ptr noundef nonnull align 8 dereferenceable(48) %3) #26
  br label %_ZNSt10unique_ptrIN5ceres8internal21DenseIterativeRefinerESt14default_deleteIS2_EED2Ev.exit.i

_ZNSt10unique_ptrIN5ceres8internal21DenseIterativeRefinerESt14default_deleteIS2_EED2Ev.exit.i: ; preds = %_ZNKSt14default_deleteIN5ceres8internal21DenseIterativeRefinerEEclEPS2_.exit.i.i, %1
  store ptr null, ptr %2, align 8
  %7 = getelementptr inbounds i8, ptr %0, i64 8
  %8 = load ptr, ptr %7, align 8
  %.not.i1.i = icmp eq ptr %8, null
  br i1 %.not.i1.i, label %_ZN5ceres8internal20RefinedDenseCholeskyD2Ev.exit, label %_ZNKSt14default_deleteIN5ceres8internal13DenseCholeskyEEclEPS2_.exit.i.i

_ZNKSt14default_deleteIN5ceres8internal13DenseCholeskyEEclEPS2_.exit.i.i: ; preds = %_ZNSt10unique_ptrIN5ceres8internal21DenseIterativeRefinerESt14default_deleteIS2_EED2Ev.exit.i
  %9 = load ptr, ptr %8, align 8
  %10 = getelementptr inbounds i8, ptr %9, i64 8
  %11 = load ptr, ptr %10, align 8
  tail call void %11(ptr noundef nonnull align 8 dereferenceable(8) %8) #26
  br label %_ZN5ceres8internal20RefinedDenseCholeskyD2Ev.exit

_ZN5ceres8internal20RefinedDenseCholeskyD2Ev.exit: ; preds = %_ZNSt10unique_ptrIN5ceres8internal21DenseIterativeRefinerESt14default_deleteIS2_EED2Ev.exit.i, %_ZNKSt14default_deleteIN5ceres8internal13DenseCholeskyEEclEPS2_.exit.i.i
  tail call void @_ZdlPv(ptr noundef nonnull %0) #25
  ret void
}